(dp1
S'result'
p2
ccopy_reg
_reconstructor
p3
(cvarial.wrappers
WrapperWrapper
p4
c__builtin__
object
p5
NtRp6
(dp7
S'name'
p8
S'SFrame_FSRup_sqrt2'
p9
sS'title'
p10
S''
sS'wrps'
p11
(lp12
sS'exit_code'
p13
I0
sS'klass'
p14
S'WrapperWrapper'
p15
sS'conf_filename'
p16
S'conf.xml'
p17
sS'log_file'
p18
S'sframe_output.log'
p19
sS'type'
p20
S"<type 'list'>"
p21
sS'cwd'
p22
S'./SFrameUncerts_2017_muon/SFrame_FSRup_sqrt2/'
p23
sS'history'
p24
S''
sbs.